target datalayout = "e-m:e-p270:32:32-p271:32:32-p272:64:64-i64:64-i128:128-f80:128-n8:16:32:64-S128"
target triple = "x86_64-pc-linux-gnu"

@recurse_submodules = internal global i32 1, align 4
@config_autostash = internal global i32 0, align 4
@.str.15 = private unnamed_addr constant [17 x i8] c"rebase.autostash\00", align 1
@.str.16 = private unnamed_addr constant [18 x i8] c"submodule.recurse\00", align 1
@.str.17 = private unnamed_addr constant [18 x i8] c"gpg.mintrustlevel\00", align 1
@check_trust_level = internal global i32 1, align 4

; Function Attrs: nounwind uwtable
define internal i32 @git_pull_config(ptr noundef %0, ptr noundef %1, ptr noundef %2, ptr noundef %3) #0 {
  %5 = alloca i32, align 4
  %6 = alloca ptr, align 8
  %7 = alloca ptr, align 8
  %8 = alloca ptr, align 8
  %9 = alloca ptr, align 8
  store ptr %0, ptr %6, align 8, !tbaa !11
  store ptr %1, ptr %7, align 8, !tbaa !11
  store ptr %2, ptr %8, align 8, !tbaa !46
  store ptr %3, ptr %9, align 8, !tbaa !45
  %10 = load ptr, ptr %6, align 8, !tbaa !11
  %11 = call i32 @strcmp(ptr noundef %10, ptr noundef @.str.15) #12
  %12 = icmp ne i32 %11, 0
  br i1 %12, label %17, label %13

13:                                               ; preds = %4
  %14 = load ptr, ptr %6, align 8, !tbaa !11
  %15 = load ptr, ptr %7, align 8, !tbaa !11
  %16 = call i32 @git_config_bool(ptr noundef %14, ptr noundef %15)
  store i32 %16, ptr @config_autostash, align 4, !tbaa !4
  store i32 0, ptr %5, align 4
  br label %40

17:                                               ; preds = %4
  %18 = load ptr, ptr %6, align 8, !tbaa !11
  %19 = call i32 @strcmp(ptr noundef %18, ptr noundef @.str.16) #12
  %20 = icmp ne i32 %19, 0
  br i1 %20, label %27, label %21

21:                                               ; preds = %17
  %22 = load ptr, ptr %6, align 8, !tbaa !11
  %23 = load ptr, ptr %7, align 8, !tbaa !11
  %24 = call i32 @git_config_bool(ptr noundef %22, ptr noundef %23)
  %25 = icmp ne i32 %24, 0
  %26 = select i1 %25, i32 2, i32 0
  store i32 %26, ptr @recurse_submodules, align 4, !tbaa !4
  store i32 0, ptr %5, align 4
  br label %40

27:                                               ; preds = %17
  %28 = load ptr, ptr %6, align 8, !tbaa !11
  %29 = call i32 @strcmp(ptr noundef %28, ptr noundef @.str.17) #12
  %30 = icmp ne i32 %29, 0
  br i1 %30, label %32, label %31

31:                                               ; preds = %27
  store i32 0, ptr @check_trust_level, align 4, !tbaa !4
  br label %32

32:                                               ; preds = %31, %27
  br label %33

33:                                               ; preds = %32
  br label %34

34:                                               ; preds = %33
  %35 = load ptr, ptr %6, align 8, !tbaa !11
  %36 = load ptr, ptr %7, align 8, !tbaa !11
  %37 = load ptr, ptr %8, align 8, !tbaa !46
  %38 = load ptr, ptr %9, align 8, !tbaa !45
  %39 = call i32 @git_default_config(ptr noundef %35, ptr noundef %36, ptr noundef %37, ptr noundef %38)
  store i32 %39, ptr %5, align 4
  br label %40

40:                                               ; preds = %34, %21, %13
  %41 = load i32, ptr %5, align 4
  ret i32 %41
}