; Function Attrs: nounwind uwtable
define internal i32 @git_pull_config(ptr noundef %0, ptr noundef %1, ptr noundef %2, ptr noundef %3) #0 {
  %5 = tail call i32 @strcmp(ptr noundef nonnull dereferenceable(1) %0, ptr noundef nonnull dereferenceable(17) @.str.15) #18
  %.not = icmp eq i32 %5, 0
  br i1 %.not, label %6, label %8

6:                                                ; preds = %4
  %7 = tail call i32 @git_config_bool(ptr noundef nonnull %0, ptr noundef %1) #17
  store i32 %7, ptr @config_autostash, align 4, !tbaa !39
  br label %18

8:                                                ; preds = %4
  %9 = tail call i32 @strcmp(ptr noundef nonnull dereferenceable(1) %0, ptr noundef nonnull dereferenceable(18) @.str.16) #18
  %.not11 = icmp eq i32 %9, 0
  br i1 %.not11, label %10, label %13

10:                                               ; preds = %8
  %11 = tail call i32 @git_config_bool(ptr noundef nonnull %0, ptr noundef %1) #17
  %.not12 = icmp eq i32 %11, 0
  %12 = select i1 %.not12, i32 0, i32 2
  store i32 %12, ptr @recurse_submodules, align 4, !tbaa !39
  br label %18

13:                                               ; preds = %8
  %14 = tail call i32 @strcmp(ptr noundef nonnull dereferenceable(1) %0, ptr noundef nonnull dereferenceable(18) @.str.17) #18
  %.not13 = icmp eq i32 %14, 0
  br i1 %.not13, label %15, label %16

15:                                               ; preds = %13
  store i1 true, ptr @check_trust_level, align 4
  br label %16

16:                                               ; preds = %15, %13
  %17 = tail call i32 @git_default_config(ptr noundef nonnull %0, ptr noundef %1, ptr noundef %2, ptr noundef %3) #17
  br label %18

18:                                               ; preds = %16, %10, %6
  %.0 = phi i32 [ %17, %16 ], [ 0, %10 ], [ 0, %6 ]
  ret i32 %.0
}